target datalayout = "e-m:e-p270:32:32-p271:32:32-p272:64:64-i64:64-i128:128-f80:128-n8:16:32:64-S128"
target triple = "x86_64-pc-linux-gnu"

%struct.H5O_obj_class_t = type { i32, ptr, ptr, ptr, ptr, ptr, ptr, ptr, ptr, ptr }
%struct.H5O_loc_t = type { ptr, i64, i8 }
%struct.H5G_loc_t = type { ptr, ptr }
%struct.H5G_name_t = type { ptr, ptr, i32 }

@.str.4 = private unnamed_addr constant [100 x i8] c"generated/home/dtcxzyw/WorkSpace/Projects/compilers/llvm-opt-benchmark/bench/hdf5/hdf5/src/H5Oint.c\00", align 1
@H5E_OHDR_g = external global i64, align 8
@H5E_CANTGET_g = external global i64, align 8
@H5E_CANTOPENOBJ_g = external global i64, align 8
@__func__.H5O_open_name = private unnamed_addr constant [14 x i8] c"H5O_open_name\00", align 1
@H5E_NOTFOUND_g = external global i64, align 8
@.str.23 = private unnamed_addr constant [17 x i8] c"object not found\00", align 1
@.str.24 = private unnamed_addr constant [22 x i8] c"unable to open object\00", align 1
@H5E_CANTRELEASE_g = external global i64, align 8
@.str.25 = private unnamed_addr constant [20 x i8] c"can't free location\00", align 1
@__func__.H5O_open_by_loc = private unnamed_addr constant [16 x i8] c"H5O_open_by_loc\00", align 1
@.str.27 = private unnamed_addr constant [33 x i8] c"unable to determine object class\00", align 1

; Function Attrs: nounwind uwtable
define ptr @H5O_open_by_loc(ptr noundef %0, ptr noundef %1) #0 {
  %3 = alloca ptr, align 8
  %4 = alloca ptr, align 8
  %5 = alloca ptr, align 8
  %6 = alloca ptr, align 8
  %7 = alloca i8, align 1
  store ptr %0, ptr %3, align 8
  store ptr %1, ptr %4, align 8
  store ptr null, ptr %6, align 8
  store i8 0, ptr %7, align 1
  %8 = load ptr, ptr %3, align 8
  %9 = getelementptr inbounds %struct.H5G_loc_t, ptr %8, i32 0, i32 0
  %10 = load ptr, ptr %9, align 8
  %11 = call ptr @H5O__obj_class(ptr noundef %10)
  store ptr %11, ptr %5, align 8
  %12 = icmp eq ptr null, %11
  br i1 %12, label %13, label %28

13:                                               ; preds = %2
  br label %14

14:                                               ; preds = %13
  br label %15

15:                                               ; preds = %14
  br label %16

16:                                               ; preds = %15
  %17 = load i64, ptr @H5E_OHDR_g, align 8
  %18 = load i64, ptr @H5E_CANTGET_g, align 8
  %19 = call i32 (ptr, ptr, i32, i64, i64, ptr, ...) @H5E_printf_stack(ptr noundef @.str.4, ptr noundef @__func__.H5O_open_by_loc, i32 noundef 718, i64 noundef %17, i64 noundef %18, ptr noundef @.str.27)
  br label %20

20:                                               ; preds = %16
  store i8 1, ptr %7, align 1
  %21 = load i8, ptr %7, align 1
  %22 = trunc i8 %21 to i1
  %23 = zext i1 %22 to i8
  store i8 %23, ptr %7, align 1
  br label %24

24:                                               ; preds = %20
  br label %25

25:                                               ; preds = %24
  store ptr null, ptr %6, align 8
  br label %52

26:                                               ; No predecessors!
  br label %27

27:                                               ; preds = %26
  br label %28

28:                                               ; preds = %27, %2
  %29 = load ptr, ptr %5, align 8
  %30 = getelementptr inbounds %struct.H5O_obj_class_t, ptr %29, i32 0, i32 5
  %31 = load ptr, ptr %30, align 8
  %32 = load ptr, ptr %3, align 8
  %33 = load ptr, ptr %4, align 8
  %34 = call ptr %31(ptr noundef %32, ptr noundef %33)
  store ptr %34, ptr %6, align 8
  %35 = icmp eq ptr null, %34
  br i1 %35, label %36, label %51

36:                                               ; preds = %28
  br label %37

37:                                               ; preds = %36
  br label %38

38:                                               ; preds = %37
  br label %39

39:                                               ; preds = %38
  %40 = load i64, ptr @H5E_OHDR_g, align 8
  %41 = load i64, ptr @H5E_CANTOPENOBJ_g, align 8
  %42 = call i32 (ptr, ptr, i32, i64, i64, ptr, ...) @H5E_printf_stack(ptr noundef @.str.4, ptr noundef @__func__.H5O_open_by_loc, i32 noundef 723, i64 noundef %40, i64 noundef %41, ptr noundef @.str.24)
  br label %43

43:                                               ; preds = %39
  store i8 1, ptr %7, align 1
  %44 = load i8, ptr %7, align 1
  %45 = trunc i8 %44 to i1
  %46 = zext i1 %45 to i8
  store i8 %46, ptr %7, align 1
  br label %47

47:                                               ; preds = %43
  br label %48

48:                                               ; preds = %47
  store ptr null, ptr %6, align 8
  br label %52

49:                                               ; No predecessors!
  br label %50

50:                                               ; preds = %49
  br label %51

51:                                               ; preds = %50, %28
  br label %52

52:                                               ; preds = %51, %48, %25
  %53 = load ptr, ptr %6, align 8
  ret ptr %53
}

; Function Attrs: nounwind uwtable
define ptr @H5O_open_name(ptr noundef %0, ptr noundef %1, ptr noundef %2) #0 {
  %4 = alloca ptr, align 8
  %5 = alloca ptr, align 8
  %6 = alloca ptr, align 8
  %7 = alloca %struct.H5G_loc_t, align 8
  %8 = alloca %struct.H5G_name_t, align 8
  %9 = alloca %struct.H5O_loc_t, align 8
  %10 = alloca i8, align 1
  %11 = alloca ptr, align 8
  %12 = alloca i8, align 1
  store ptr %0, ptr %4, align 8
  store ptr %1, ptr %5, align 8
  store ptr %2, ptr %6, align 8
  store i8 0, ptr %10, align 1
  store ptr null, ptr %11, align 8
  store i8 0, ptr %12, align 1
  %13 = getelementptr inbounds %struct.H5G_loc_t, ptr %7, i32 0, i32 0
  store ptr %9, ptr %13, align 8
  %14 = getelementptr inbounds %struct.H5G_loc_t, ptr %7, i32 0, i32 1
  store ptr %8, ptr %14, align 8
  %15 = call i32 @H5G_loc_reset(ptr noundef %7)
  %16 = load ptr, ptr %4, align 8
  %17 = load ptr, ptr %5, align 8
  %18 = call i32 @H5G_loc_find(ptr noundef %16, ptr noundef %17, ptr noundef %7)
  %19 = icmp slt i32 %18, 0
  br i1 %19, label %20, label %35

20:                                               ; preds = %3
  br label %21

21:                                               ; preds = %20
  br label %22

22:                                               ; preds = %21
  br label %23

23:                                               ; preds = %22
  %24 = load i64, ptr @H5E_OHDR_g, align 8
  %25 = load i64, ptr @H5E_NOTFOUND_g, align 8
  %26 = call i32 (ptr, ptr, i32, i64, i64, ptr, ...) @H5E_printf_stack(ptr noundef @.str.4, ptr noundef @__func__.H5O_open_name, i32 noundef 594, i64 noundef %24, i64 noundef %25, ptr noundef @.str.23)
  br label %27

27:                                               ; preds = %23
  store i8 1, ptr %12, align 1
  %28 = load i8, ptr %12, align 1
  %29 = trunc i8 %28 to i1
  %30 = zext i1 %29 to i8
  store i8 %30, ptr %12, align 1
  br label %31

31:                                               ; preds = %27
  br label %32

32:                                               ; preds = %31
  store ptr null, ptr %11, align 8
  br label %55

33:                                               ; No predecessors!
  br label %34

34:                                               ; preds = %33
  br label %35

35:                                               ; preds = %34, %3
  store i8 1, ptr %10, align 1
  %36 = load ptr, ptr %6, align 8
  %37 = call ptr @H5O_open_by_loc(ptr noundef %7, ptr noundef %36)
  store ptr %37, ptr %11, align 8
  %38 = icmp eq ptr null, %37
  br i1 %38, label %39, label %54

39:                                               ; preds = %35
  br label %40

40:                                               ; preds = %39
  br label %41

41:                                               ; preds = %40
  br label %42

42:                                               ; preds = %41
  %43 = load i64, ptr @H5E_OHDR_g, align 8
  %44 = load i64, ptr @H5E_CANTOPENOBJ_g, align 8
  %45 = call i32 (ptr, ptr, i32, i64, i64, ptr, ...) @H5E_printf_stack(ptr noundef @.str.4, ptr noundef @__func__.H5O_open_name, i32 noundef 599, i64 noundef %43, i64 noundef %44, ptr noundef @.str.24)
  br label %46

46:                                               ; preds = %42
  store i8 1, ptr %12, align 1
  %47 = load i8, ptr %12, align 1
  %48 = trunc i8 %47 to i1
  %49 = zext i1 %48 to i8
  store i8 %49, ptr %12, align 1
  br label %50

50:                                               ; preds = %46
  br label %51

51:                                               ; preds = %50
  store ptr null, ptr %11, align 8
  br label %55

52:                                               ; No predecessors!
  br label %53

53:                                               ; preds = %52
  br label %54

54:                                               ; preds = %53, %35
  br label %55

55:                                               ; preds = %54, %51, %32
  %56 = load ptr, ptr %11, align 8
  %57 = icmp eq ptr null, %56
  br i1 %57, label %58, label %78

58:                                               ; preds = %55
  %59 = load i8, ptr %10, align 1
  %60 = trunc i8 %59 to i1
  br i1 %60, label %61, label %77

61:                                               ; preds = %58
  %62 = call i32 @H5G_loc_free(ptr noundef %7)
  %63 = icmp slt i32 %62, 0
  br i1 %63, label %64, label %77

64:                                               ; preds = %61
  br label %65

65:                                               ; preds = %64
  br label %66

66:                                               ; preds = %65
  br label %67

67:                                               ; preds = %66
  %68 = load i64, ptr @H5E_OHDR_g, align 8
  %69 = load i64, ptr @H5E_CANTRELEASE_g, align 8
  %70 = call i32 (ptr, ptr, i32, i64, i64, ptr, ...) @H5E_printf_stack(ptr noundef @.str.4, ptr noundef @__func__.H5O_open_name, i32 noundef 604, i64 noundef %68, i64 noundef %69, ptr noundef @.str.25)
  br label %71

71:                                               ; preds = %67
  store i8 1, ptr %12, align 1
  %72 = load i8, ptr %12, align 1
  %73 = trunc i8 %72 to i1
  %74 = zext i1 %73 to i8
  store i8 %74, ptr %12, align 1
  br label %75

75:                                               ; preds = %71
  store ptr null, ptr %11, align 8
  br label %76

76:                                               ; preds = %75
  br label %77

77:                                               ; preds = %76, %61, %58
  br label %78

78:                                               ; preds = %77, %55
  %79 = load ptr, ptr %11, align 8
  ret ptr %79
}