; Function Attrs: nounwind uwtable
define ptr @H5O_open_name(ptr noundef %0, ptr noundef %1, ptr noundef %2) local_unnamed_addr #1 {
  %4 = alloca %struct.H5G_loc_t, align 8
  %5 = alloca %struct.H5G_name_t, align 8
  %6 = alloca %struct.H5O_loc_t, align 8
  store ptr %6, ptr %4, align 8
  %7 = getelementptr inbounds i8, ptr %4, i64 8
  store ptr %5, ptr %7, align 8
  %8 = call i32 @H5G_loc_reset(ptr noundef nonnull %4) #11
  %9 = call i32 @H5G_loc_find(ptr noundef %0, ptr noundef %1, ptr noundef nonnull %4) #11
  %10 = icmp slt i32 %9, 0
  br i1 %10, label %11, label %15

11:                                               ; preds = %3
  %12 = load i64, ptr @H5E_OHDR_g, align 8
  %13 = load i64, ptr @H5E_NOTFOUND_g, align 8
  %14 = call i32 (ptr, ptr, i32, i64, i64, ptr, ...) @H5E_printf_stack(ptr noundef nonnull @.str.4, ptr noundef nonnull @__func__.H5O_open_name, i32 noundef 594, i64 noundef %12, i64 noundef %13, ptr noundef nonnull @.str.23) #11
  br label %H5O_open_by_loc.exit.thread13

15:                                               ; preds = %3
  %16 = load ptr, ptr %4, align 8
  %17 = call ptr @H5O__obj_class(ptr noundef %16)
  %18 = icmp eq ptr %17, null
  br i1 %18, label %19, label %23

19:                                               ; preds = %15
  %20 = load i64, ptr @H5E_OHDR_g, align 8
  %21 = load i64, ptr @H5E_CANTGET_g, align 8
  %22 = call i32 (ptr, ptr, i32, i64, i64, ptr, ...) @H5E_printf_stack(ptr noundef nonnull @.str.4, ptr noundef nonnull @__func__.H5O_open_by_loc, i32 noundef 718, i64 noundef %20, i64 noundef %21, ptr noundef nonnull @.str.27) #11
  br label %H5O_open_by_loc.exit

23:                                               ; preds = %15
  %24 = getelementptr inbounds i8, ptr %17, i64 40
  %25 = load ptr, ptr %24, align 8
  %26 = call ptr %25(ptr noundef nonnull %4, ptr noundef %2) #11
  %27 = icmp eq ptr %26, null
  br i1 %27, label %28, label %H5O_open_by_loc.exit.thread13

28:                                               ; preds = %23
  %29 = load i64, ptr @H5E_OHDR_g, align 8
  %30 = load i64, ptr @H5E_CANTOPENOBJ_g, align 8
  %31 = call i32 (ptr, ptr, i32, i64, i64, ptr, ...) @H5E_printf_stack(ptr noundef nonnull @.str.4, ptr noundef nonnull @__func__.H5O_open_by_loc, i32 noundef 723, i64 noundef %29, i64 noundef %30, ptr noundef nonnull @.str.24) #11
  br label %H5O_open_by_loc.exit

H5O_open_by_loc.exit:                             ; preds = %28, %19
  %32 = load i64, ptr @H5E_OHDR_g, align 8
  %33 = load i64, ptr @H5E_CANTOPENOBJ_g, align 8
  %34 = call i32 (ptr, ptr, i32, i64, i64, ptr, ...) @H5E_printf_stack(ptr noundef nonnull @.str.4, ptr noundef nonnull @__func__.H5O_open_name, i32 noundef 599, i64 noundef %32, i64 noundef %33, ptr noundef nonnull @.str.24) #11
  %35 = call i32 @H5G_loc_free(ptr noundef nonnull %4) #11
  %36 = icmp slt i32 %35, 0
  br i1 %36, label %37, label %H5O_open_by_loc.exit.thread13

37:                                               ; preds = %H5O_open_by_loc.exit
  %38 = load i64, ptr @H5E_OHDR_g, align 8
  %39 = load i64, ptr @H5E_CANTRELEASE_g, align 8
  %40 = call i32 (ptr, ptr, i32, i64, i64, ptr, ...) @H5E_printf_stack(ptr noundef nonnull @.str.4, ptr noundef nonnull @__func__.H5O_open_name, i32 noundef 604, i64 noundef %38, i64 noundef %39, ptr noundef nonnull @.str.25) #11
  br label %H5O_open_by_loc.exit.thread13

H5O_open_by_loc.exit.thread13:                    ; preds = %11, %23, %H5O_open_by_loc.exit, %37
  %.1 = phi ptr [ null, %37 ], [ null, %H5O_open_by_loc.exit ], [ %26, %23 ], [ null, %11 ]
  ret ptr %.1
}